; Function Attrs: nounwind uwtable
define internal void @HIDAPI_DriverPS5_SetDevicePlayerIndex(ptr noundef readonly captures(none) %0, i32 %1, i32 noundef %2) #0 {
  %4 = getelementptr inbounds nuw i8, ptr %0, i64 112
  %5 = load ptr, ptr %4, align 8
  %6 = getelementptr inbounds nuw i8, ptr %5, i64 8
  %7 = load ptr, ptr %6, align 8
  %.not = icmp eq ptr %7, null
  br i1 %.not, label %11, label %8

8:                                                ; preds = %3
  %9 = getelementptr inbounds nuw i8, ptr %5, i64 96
  store i32 %2, ptr %9, align 8
  %10 = tail call fastcc zeroext i1 @HIDAPI_DriverPS5_UpdateEffects(ptr noundef nonnull %5, i32 noundef 24, i1 noundef zeroext false)
  br label %11

11:                                               ; preds = %3, %8
  ret void
}